(lp0
S'\xa4\xa3\xa6n\xb7n\xab\xe4\xa5\xb4\xc5\xcd\xb1z\xa1i\xa6p\xaag\xa5\xbb\xbcs\xa7i\xabh\xb9\xef\xb1z\xb2\xa3\xa5\xcd\xa7x\xc2z\xa1a\xa6b\xa6\xb9\xb2`\xb7p\xa9\xea\xbap!!!\xbd\xd0\xa6h\xa8\xa3\xbd\xcc!!\xc1\xc2\xc1\xc2!~~\n'
p1
aS'other people\x92s judgments?  that\x92s what we want to tell you.  \n'
p2
aS'i did the 1 side of the face test, and i did not tell my spouse that i was doing it.  we went to get some  fast food.  he was looking at me, and said \x93i can tell you which side you are using it on.  it\x92s your right side.\x94  i asked what made him think so, and he said the lines around my mouth and eyes have softened, and the fine lines around my neck.  we are tickled, because everyone we talk to wants it!  j.d., tx \n'
p3
aS'\x94i have found a system that works.  i have 44 people in my group in less than a month! in one month i made over $6,000! \x93 b.m., nh\n'
p4
aS'thanks to recent, dramatic, technological advances in the laboratorial processes for the extraction of alkaloid and glycocide supplements from botanicals/herbas/plant matter, we are now able to offer\x85.in more cultivated/enhanced/viripotent/substantiated format\x85.what had actually already been the most significant, lawful, \x93personal choice\x94 smoking substance available on the planet\x85.  \x93seventh heaven\x94 temple \x933\x94 ragga dagga (tm) is the sweet, sweet evolution of all of that\x85. \n'
p5
aS'temple smoking substances and temple \x933\x94 ragga dagga (tm) have always been and will always remain exclusive exotic botanical resources \x93house smoking substance specialties\x94.  temple \x933\x94 ragga dagga (tm) is both a euphonious/celebratory and relaxing/calming pipe-smoking substance that offers both physical and cerebral significators.  temple \x933\x94 ragga dagga (tm) is a proprietary, prescribed botanical amalgamation which includes the following synergistically/synesthesia conglomerated, core-refined, ratio-enhanced herbas/botanicals, resins, essences, flower-tops and oils in extreme ratio extractment ranging from 8.5 to 1, to 100 to 1 viripotent concentrations drachasha, chavana prash, trikatu, black seed herb, hybrid flowering turnera diffusa, capillaris herba, angelica root, wild dagga mature leaf matter, haritaki, shatavari, labdunum, neroli, unicorn root, papaver rhoes, dendrobian stems, calea zacalechichi buddings, rue, amla, salvia divinorum, crocus sativa, lotus and gokshu!\n'
p6
aS'i was skeptical when i first read your ad.  i grew up in the 70\x92s & 80\x92s.  i was a hard core (alternative smoker) then.  so i knew my stuff.  but drug tests stopped that!  now i am disabled from a degenerative muscle, ligament, and tendon disease.  i was smoking (an illegal product) for the pain and nausea.  now i have something just as good; temple 3, but cheaper, and it is legal!  i also have a lot of trouble sleeping, but the capillaris herba made into tea works and smells great!  your products that i tried so far, are as good or better than your ads say!  that is hard to find nowadays in a company.  who ever put this stuff together is a botanical genius.  i will be a customer for life!  also, i talked with a lady on the phone when i was ordering, and asked her to find out if i could get my products and samples to hand out for free.  and just send the customers to you.  or get a discount on products that i could sell retail to people.  i would prefer the earlier one becau!\n'
p7
aS'\x93i\x92m a man of my 40\x92s and i really know my stuff.  i don\x92t drink or do illegal drugs anymore and have found a much more spiritual path.  i used to have to take valium in the past.  not anymore with the temple \x933\x94.  it really amazes me how this stuff tastes like the lebanese and blonde stuff i used to smoke in the 70\x92s.  i am very satisfied with all of your products.  i like them a lot and will be a customer for life for sure.  whoever makes this stuff is an artist at it.  who would have thought?!\x94  \n'
p8
aS'  trade links for only $8 cpm.\xa0 compare that to the \n'
p9
aS'other people\x92s judgments?  that\x92s what we want to tell you.  \n'
p10
aS'tunnels, mountains, and any place where a signal is weak.  don\x92t miss that =\n'
p11
aS'mon. \x96 fri. 10:30 am to 7:00 pm (mt) \n'
p12
aS'thanks to recent, dramatic, technological advances in the laboratorial processes for the extraction of alkaloid and glycocide supplements from botanicals/herbas/plant matter, we are now able to offer\x85.in more cultivated/enhanced/viripotent/substantiated format\x85.what had actually already been the most significant, lawful, \x93personal choice\x94 smoking substance available on the planet\x85.  \x93seventh heaven\x94 temple \x933\x94 ragga dagga (tm) is the sweet, sweet evolution of all of that\x85. \n'
p13
aS'temple smoking substances and temple \x933\x94 ragga dagga (tm) have always been and will always remain exclusive exotic botanical resources \x93house smoking substance specialties\x94.  temple \x933\x94 ragga dagga (tm) is both a euphonious/celebratory and relaxing/calming pipe-smoking substance that offers both physical and cerebral significators.  temple \x933\x94 ragga dagga (tm) is a proprietary, prescribed botanical amalgamation which includes the following synergistically/synesthesia conglomerated, core-refined, ratio-enhanced herbas/botanicals, resins, essences, flower-tops and oils in extreme ratio extractment ranging from 8.5 to 1, to 100 to 1 viripotent concentrations drachasha, chavana prash, trikatu, black seed herb, hybrid flowering turnera diffusa, capillaris herba, angelica root, wild dagga mature leaf matter, haritaki, shatavari, labdunum, neroli, unicorn root, papaver rhoes, dendrobian stems, calea zacalechichi buddings, rue, amla, salvia divinorum, crocus sativa, lotus and gokshura cuttings. \n'
p14
aS'\x93i\x92m a man of my 40\x92s and i really know my stuff.  i don\x92t drink or do illegal drugs anymore and have found a much more spiritual path.  i used to have to take valium in the past.  not anymore with the temple \x933\x94.  it really amazes me how this stuff tastes like the lebanese and blonde stuff i used to smoke in the 70\x92s.  i am very satisfied with all of your products.  i like them a lot and will be a customer for life for sure.  whoever makes this stuff is an artist at it.  who would have thought?!\x94  \n'
p15
aS'trying almost everything to lose weight.\xa0 i know how you feel\n'
p16
aS'either.\xa0 it seemed like the harder i worked at it, the less\n'
p17
aS"so i told her i'd give it a try.\xa0 i mean, there was nothing \n"
p18
aS'to lose except a lot of weight!\xa0 let me tell you, it was\n'
p19
aS'at all.\xa0 yes, i still eat pizza, and lots of it!\n'
p20
aS'and received permission to resell it - at a huge discount.\xa0i feel\n'
p21
aS'to gain!\xa0 you will lose weight fast - guaranteed.\xa0 this is my\n'
p22
aS'thanks to recent, dramatic, technological advances in the laboratorial processes for the extraction of alkaloid and glycocide supplements from botanicals/herbas/plant matter, we are now able to offer\x85.in more cultivated/enhanced/viripotent/substantiated format\x85.what had actually already been the most significant, lawful, \x93personal choice\x94 smoking substance available on the planet\x85.  \x93seventh heaven\x94 temple \x933\x94 ragga dagga (tm) is the sweet, sweet evolution of all of that\x85. \n'
p23
aS'temple smoking substances and temple \x933\x94 ragga dagga (tm) have always been and will always remain exclusive exotic botanical resources \x93house smoking substance specialties\x94.  temple \x933\x94 ragga dagga (tm) is both a euphonious/celebratory and relaxing/calming pipe-smoking substance that offers both physical and cerebral significators.  temple \x933\x94 ragga dagga (tm) is a proprietary, prescribed botanical amalgamation which includes the following synergistically/synesthesia conglomerated, core-refined, ratio-enhanced herbas/botanicals, resins, essences, flower-tops and oils in extreme ratio extractment ranging from 8.5 to 1, to 100 to 1 viripotent concentrations drachasha, chavana prash, trikatu, black seed herb, hybrid flowering turnera diffusa, capillaris herba, angelica root, wild dagga mature leaf matter, haritaki, shatavari, labdunum, neroli, unicorn root, papaver rhoes, dendrobian stems, calea zacalechichi buddings, rue, amla, salvia divinorum, crocus sativa, lotus and gokshu!\n'
p24
aS'i was skeptical when i first read your ad.  i grew up in the 70\x92s & 80\x92s.  i was a hard core (alternative smoker) then.  so i knew my stuff.  but drug tests stopped that!  now i am disabled from a degenerative muscle, ligament, and tendon disease.  i was smoking (an illegal product) for the pain and nausea.  now i have something just as good; temple 3, but cheaper, and it is legal!  i also have a lot of trouble sleeping, but the capillaris herba made into tea works and smells great!  your products that i tried so far, are as good or better than your ads say!  that is hard to find nowadays in a company.  who ever put this stuff together is a botanical genius.  i will be a customer for life!  also, i talked with a lady on the phone when i was ordering, and asked her to find out if i could get my products and samples to hand out for free.  and just send the customers to you.  or get a discount on products that i could sell retail to people.  i would prefer the earlier one becau!\n'
p25
aS'\x93i\x92m a man of my 40\x92s and i really know my stuff.  i don\x92t drink or do illegal drugs anymore and have found a much more spiritual path.  i used to have to take valium in the past.  not anymore with the temple \x933\x94.  it really amazes me how this stuff tastes like the lebanese and blonde stuff i used to smoke in the 70\x92s.  i am very satisfied with all of your products.  i like them a lot and will be a customer for life for sure.  whoever makes this stuff is an artist at it.  who would have thought?!\x94  \n'
p26
aS'so i tried it.\xa0 i mean, there was nothing to lose because they\n'
p27
aS"period.\xa0 six months later, as i'm writing this message to you,\n"
p28
aS'and got permission to be a reseller - at a big discount.\xa0 i want\n'
p29
aS'trying almost everything to lose weight.\xa0 i know how you feel\n'
p30
aS'either.\xa0 it seemed like the harder i worked at it, the less\n'
p31
aS"so i told her i'd give it a try.\xa0 i mean, there was nothing \n"
p32
aS'to lose except a lot of weight!\xa0 let me tell you, it was\n'
p33
aS'at all.\xa0 yes, i still eat pizza, and lots of it!\n'
p34
aS'and received permission to resell it - at a huge discount.\xa0i feel\n'
p35
aS'to gain!\xa0 you will lose weight fast - guaranteed.\xa0 this is my\n'
p36
aS'thanks to recent, dramatic, technological advances in the laboratorial processes for the extraction of alkaloid and glycocide supplements from botanicals/herbas/plant matter, we are now able to offer\x85.in more cultivated/enhanced/viripotent/substantiated format\x85.what had actually already been the most significant, lawful, \x93personal choice\x94 smoking substance available on the planet\x85.  \x93seventh heaven\x94 temple \x933\x94 ragga dagga (tm) is the sweet, sweet evolution of all of that\x85. \n'
p37
aS'temple smoking substances and temple \x933\x94 ragga dagga (tm) have always been and will always remain exclusive exotic botanical resources \x93house smoking substance specialties\x94.  temple \x933\x94 ragga dagga (tm) is both a euphonious/celebratory and relaxing/calming pipe-smoking substance that offers both physical and cerebral significators.  temple \x933\x94 ragga dagga (tm) is a proprietary, prescribed botanical amalgamation which includes the following synergistically/synesthesia conglomerated, core-refined, ratio-enhanced herbas/botanicals, resins, essences, flower-tops and oils in extreme ratio extractment ranging from 8.5 to 1, to 100 to 1 viripotent concentrations drachasha, chavana prash, trikatu, black seed herb, hybrid flowering turnera diffusa, capillaris herba, angelica root, wild dagga mature leaf matter, haritaki, shatavari, labdunum, neroli, unicorn root, papaver rhoes, dendrobian stems, calea zacalechichi buddings, rue, amla, salvia divinorum, crocus sativa, lotus and gokshu!\n'
p38
aS'i was skeptical when i first read your ad.  i grew up in the 70\x92s & 80\x92s.  i was a hard core (alternative smoker) then.  so i knew my stuff.  but drug tests stopped that!  now i am disabled from a degenerative muscle, ligament, and tendon disease.  i was smoking (an illegal product) for the pain and nausea.  now i have something just as good; temple 3, but cheaper, and it is legal!  i also have a lot of trouble sleeping, but the capillaris herba made into tea works and smells great!  your products that i tried so far, are as good or better than your ads say!  that is hard to find nowadays in a company.  who ever put this stuff together is a botanical genius.  i will be a customer for life!  also, i talked with a lady on the phone when i was ordering, and asked her to find out if i could get my products and samples to hand out for free.  and just send the customers to you.  or get a discount on products that i could sell retail to people.  i would prefer the earlier one becau!\n'
p39
aS'\x93i\x92m a man of my 40\x92s and i really know my stuff.  i don\x92t drink or do illegal drugs anymore and have found a much more spiritual path.  i used to have to take valium in the past.  not anymore with the temple \x933\x94.  it really amazes me how this stuff tastes like the lebanese and blonde stuff i used to smoke in the 70\x92s.  i am very satisfied with all of your products.  i like them a lot and will be a customer for life for sure.  whoever makes this stuff is an artist at it.  who would have thought?!\x94  \n'
p40
aS'thanks to recent, dramatic, technological advances in the laboratorial processes for the extraction of alkaloid and glycocide supplements from botanicals/herbas/plant matter, we are now able to offer\x85.in more cultivated/enhanced/viripotent/substantiated format\x85.what had actually already been the most significant, lawful, \x93personal choice\x94 smoking substance available on the planet\x85.  \x93seventh heaven\x94 temple \x933\x94 ragga dagga (tm) is the sweet, sweet evolution of all of that\x85. \n'
p41
aS'temple smoking substances and temple \x933\x94 ragga dagga (tm) have always been and will always remain exclusive exotic botanical resources \x93house smoking substance specialties\x94.  temple \x933\x94 ragga dagga (tm) is both a euphonious/celebratory and relaxing/calming pipe-smoking substance that offers both physical and cerebral significators.  temple \x933\x94 ragga dagga (tm) is a proprietary, prescribed botanical amalgamation which includes the following synergistically/synesthesia conglomerated, core-refined, ratio-enhanced herbas/botanicals, resins, essences, flower-tops and oils in extreme ratio extractment ranging from 8.5 to 1, to 100 to 1 viripotent concentrations drachasha, chavana prash, trikatu, black seed herb, hybrid flowering turnera diffusa, capillaris herba, angelica root, wild dagga mature leaf matter, haritaki, shatavari, labdunum, neroli, unicorn root, papaver rhoes, dendrobian stems, calea zacalechichi buddings, rue, amla, salvia divinorum, crocus sativa, lotus and gokshura cuttings. \n'
p42
aS'\x93i\x92m a man of my 40\x92s and i really know my stuff.  i don\x92t drink or do illegal drugs anymore and have found a much more spiritual path.  i used to have to take valium in the past.  not anymore with the temple \x933\x94.  it really amazes me how this stuff tastes like the lebanese and blonde stuff i used to smoke in the 70\x92s.  i am very satisfied with all of your products.  i like them a lot and will be a customer for life for sure.  whoever makes this stuff is an artist at it.  who would have thought?!\x94  \n'
p43
aS'  trade links for only $8 cpm.\xa0 compare that to the \n'
p44
aS'thanks to recent, dramatic, technological advances in the laboratorial processes for the extraction of alkaloid and glycocide supplements from botanicals/herbas/plant matter, we are now able to offer\x85.in more cultivated/enhanced/viripotent/substantiated format\x85.what had actually already been the most significant, lawful, \x93personal choice\x94 smoking substance available on the planet\x85.  \x93seventh heaven\x94 temple \x933\x94 ragga dagga (tm) is the sweet, sweet evolution of all of that\x85. \n'
p45
aS'temple smoking substances and temple \x933\x94 ragga dagga (tm) have always been and will always remain exclusive exotic botanical resources \x93house smoking substance specialties\x94.  temple \x933\x94 ragga dagga (tm) is both a euphonious/celebratory and relaxing/calming pipe-smoking substance that offers both physical and cerebral significators.  temple \x933\x94 ragga dagga (tm) is a proprietary, prescribed botanical amalgamation which includes the following synergistically/synesthesia conglomerated, core-refined, ratio-enhanced herbas/botanicals, resins, essences, flower-tops and oils in extreme ratio extractment ranging from 8.5 to 1, to 100 to 1 viripotent concentrations drachasha, chavana prash, trikatu, black seed herb, hybrid flowering turnera diffusa, capillaris herba, angelica root, wild dagga mature leaf matter, haritaki, shatavari, labdunum, neroli, unicorn root, papaver rhoes, dendrobian stems, calea zacalechichi buddings, rue, amla, salvia divinorum, crocus sativa, lotus and gokshu!\n'
p46
aS'i was skeptical when i first read your ad.  i grew up in the 70\x92s & 80\x92s.  i was a hard core (alternative smoker) then.  so i knew my stuff.  but drug tests stopped that!  now i am disabled from a degenerative muscle, ligament, and tendon disease.  i was smoking (an illegal product) for the pain and nausea.  now i have something just as good; temple 3, but cheaper, and it is legal!  i also have a lot of trouble sleeping, but the capillaris herba made into tea works and smells great!  your products that i tried so far, are as good or better than your ads say!  that is hard to find nowadays in a company.  who ever put this stuff together is a botanical genius.  i will be a customer for life!  also, i talked with a lady on the phone when i was ordering, and asked her to find out if i could get my products and samples to hand out for free.  and just send the customers to you.  or get a discount on products that i could sell retail to people.  i would prefer the earlier one becau!\n'
p47
aS'\x93i\x92m a man of my 40\x92s and i really know my stuff.  i don\x92t drink or do illegal drugs anymore and have found a much more spiritual path.  i used to have to take valium in the past.  not anymore with the temple \x933\x94.  it really amazes me how this stuff tastes like the lebanese and blonde stuff i used to smoke in the 70\x92s.  i am very satisfied with all of your products.  i like them a lot and will be a customer for life for sure.  whoever makes this stuff is an artist at it.  who would have thought?!\x94  \n'
p48
aS'once we receive payment, we will send you instructions on how to change your listing whenever you like. (there\x92s no charge to do this.)\n'
p49
aS'\xa4\xa3\xa6n\xb7n\xab\xe4\xa5\xb4\xc5\xcd\xb1z\xa1i\xa6p\xaag\xa5\xbb\xbcs\xa7i\xabh\xb9\xef\xb1z\xb2\xa3\xa5\xcd\xa7x\xc2z\xa1a\xa6b\xa6\xb9\xb2`\xb7p\xa9\xea\xbap!!!\xbd\xd0\xa6h\xa8\xa3\xbd\xcc!!\xc1\xc2\xc1\xc2!~~\n'
p50
aS'michael pollock of the pollock gaming resource group (prrg) has issued a report studying the effects of live wagering from remote locations. \x93 the study concludes that live wagering from remote locations does more than create a new source of revenue for sponsoring casinos. additionally, it creates a marketing opportunity, a means to find and cultivate thousands of new customers who can be encouraged to become on-site patrons.\x94 a copy of the full report in pdf format can be downloaded at http://www.gamingobserver.com/.\n'
p51
a.