(lp0
S'    eur\xeaka! (sur monblogue.com)\n'
p1
aS'    mr. toy\xb4s weblog\n'
p2
aS'on mon, 22 jul 2002 09:42:18 +0200, "nils o. sel\xe5sdal" <noselasd@utel.no> wrote:\n'
p3
aS'>personnes.  \xd6calan avait \xe9t\xe9 condamn\xe9 \xe0 mort en juin 1999, mais le\n'
p4
aS">des droits de l'homme avant de l'ex\xe9cuter.  de nombreux nationalistes\n"
p5
aS'>responsible for the deaths of more than 30,000 people.  \xd6calan had\n'
p6
aS'as a revelation. \x95\n'
p7
aS'speak, create e-mail, and surf the web, all by voice! it\x92s fast,\n'
p8
aS'"the bachelor," has broken up.  it\x92s not surprising since \n'
p9
aS'"designed for windows xp\xae". the "designed for xp" logo confirms that \n'
p10
aS"whether there was a word in his language similar to 'mana\xf1a'. the\n"
p11
aS'angegangen, schlange-h\xfcften, sein es ganz r\xfcber jetzt. b\xfcgel innen fest,\n'
p12
aS'gaelic which corresponds to \'ma\xf1ana\'?"  the irishman thinks for\n'
p13
a.